target datalayout = "e-m:e-p270:32:32-p271:32:32-p272:64:64-i64:64-i128:128-f80:128-n8:16:32:64-S128"
target triple = "x86_64-pc-linux-gnu"

%"class.std::vector" = type { %"struct.std::_Vector_base" }
%"struct.std::_Vector_base" = type { %"struct.std::_Vector_base<Type *, std::allocator<Type *>>::_Vector_impl" }
%"struct.std::_Vector_base<Type *, std::allocator<Type *>>::_Vector_impl" = type { %"struct.std::_Vector_base<Type *, std::allocator<Type *>>::_Vector_impl_data" }
%"struct.std::_Vector_base<Type *, std::allocator<Type *>>::_Vector_impl_data" = type { ptr, ptr, ptr }
%class.Filter = type { ptr, %"class.std::bitset" }
%"class.std::bitset" = type { %"struct.std::_Base_bitset" }
%"struct.std::_Base_bitset" = type { i64 }
%class.Type = type { i32, ptr, i32, %"class.std::vector.8", %"class.std::vector.13", i32, i8, i8, i8, i8, i8, %"class.std::vector.18", %"class.std::vector.23" }
%"class.std::vector.8" = type { %"struct.std::_Vector_base.9" }
%"struct.std::_Vector_base.9" = type { %"struct.std::_Vector_base<unsigned int, std::allocator<unsigned int>>::_Vector_impl" }
%"struct.std::_Vector_base<unsigned int, std::allocator<unsigned int>>::_Vector_impl" = type { %"struct.std::_Vector_base<unsigned int, std::allocator<unsigned int>>::_Vector_impl_data" }
%"struct.std::_Vector_base<unsigned int, std::allocator<unsigned int>>::_Vector_impl_data" = type { ptr, ptr, ptr }
%"class.std::vector.13" = type { %"struct.std::_Vector_base.14" }
%"struct.std::_Vector_base.14" = type { %"struct.std::_Vector_base<const Type *, std::allocator<const Type *>>::_Vector_impl" }
%"struct.std::_Vector_base<const Type *, std::allocator<const Type *>>::_Vector_impl" = type { %"struct.std::_Vector_base<const Type *, std::allocator<const Type *>>::_Vector_impl_data" }
%"struct.std::_Vector_base<const Type *, std::allocator<const Type *>>::_Vector_impl_data" = type { ptr, ptr, ptr }
%"class.std::vector.18" = type { %"struct.std::_Vector_base.19" }
%"struct.std::_Vector_base.19" = type { %"struct.std::_Vector_base<CVQualifiers, std::allocator<CVQualifiers>>::_Vector_impl" }
%"struct.std::_Vector_base<CVQualifiers, std::allocator<CVQualifiers>>::_Vector_impl" = type { %"struct.std::_Vector_base<CVQualifiers, std::allocator<CVQualifiers>>::_Vector_impl_data" }
%"struct.std::_Vector_base<CVQualifiers, std::allocator<CVQualifiers>>::_Vector_impl_data" = type { ptr, ptr, ptr }
%"class.std::vector.23" = type { %"struct.std::_Vector_base.24" }
%"struct.std::_Vector_base.24" = type { %"struct.std::_Vector_base<int, std::allocator<int>>::_Vector_impl" }
%"struct.std::_Vector_base<int, std::allocator<int>>::_Vector_impl" = type { %"struct.std::_Vector_base<int, std::allocator<int>>::_Vector_impl_data" }
%"struct.std::_Vector_base<int, std::allocator<int>>::_Vector_impl_data" = type { ptr, ptr, ptr }
%class.ChooseRandomTypeFilter = type { %class.Filter, i8, i8, ptr }

@_ZL8AllTypes = internal global %"class.std::vector" zeroinitializer, align 8
@_ZN5Error8r_error_E = external global i32, align 4
@_ZN22ChooseRandomTypeFilterC1Ebb = dso_local unnamed_addr alias void (ptr, i1, i1), ptr @_ZN22ChooseRandomTypeFilterC2Ebb
@_ZN22ChooseRandomTypeFilterD1Ev = dso_local unnamed_addr alias void (ptr), ptr @_ZN22ChooseRandomTypeFilterD2Ev

; Function Attrs: mustprogress nounwind uwtable
define dso_local noundef ptr @_ZN22ChooseRandomTypeFilter8get_typeEv(ptr noundef nonnull align 8 dereferenceable(32) %0) #4 align 2 {
  %2 = alloca ptr, align 8
  store ptr %0, ptr %2, align 8
  %3 = load ptr, ptr %2, align 8
  %4 = getelementptr inbounds %class.ChooseRandomTypeFilter, ptr %3, i32 0, i32 3
  %5 = load ptr, ptr %4, align 8
  ret ptr %5
}

; Function Attrs: mustprogress nounwind uwtable
define linkonce_odr dso_local noundef i32 @_ZN5Error9get_errorEv() #4 comdat align 2 {
  %1 = load i32, ptr @_ZN5Error8r_error_E, align 4
  ret i32 %1
}

; Function Attrs: mustprogress nounwind uwtable
define linkonce_odr dso_local noundef i64 @_ZNKSt6vectorIP4TypeSaIS1_EE4sizeEv(ptr noundef nonnull align 8 dereferenceable(24) %0) #4 comdat align 2 {
  %2 = alloca ptr, align 8
  store ptr %0, ptr %2, align 8
  %3 = load ptr, ptr %2, align 8
  %4 = getelementptr inbounds %"struct.std::_Vector_base", ptr %3, i32 0, i32 0
  %5 = getelementptr inbounds %"struct.std::_Vector_base<Type *, std::allocator<Type *>>::_Vector_impl_data", ptr %4, i32 0, i32 1
  %6 = load ptr, ptr %5, align 8
  %7 = getelementptr inbounds %"struct.std::_Vector_base", ptr %3, i32 0, i32 0
  %8 = getelementptr inbounds %"struct.std::_Vector_base<Type *, std::allocator<Type *>>::_Vector_impl_data", ptr %7, i32 0, i32 0
  %9 = load ptr, ptr %8, align 8
  %10 = ptrtoint ptr %6 to i64
  %11 = ptrtoint ptr %9 to i64
  %12 = sub i64 %10, %11
  %13 = sdiv exact i64 %12, 8
  ret i64 %13
}

; Function Attrs: mustprogress uwtable
define dso_local noundef ptr @_ZN4Type13choose_randomEv() #5 align 2 personality ptr @__gxx_personality_v0 {
  %1 = alloca ptr, align 8
  %2 = alloca %class.ChooseRandomTypeFilter, align 8
  %3 = alloca ptr, align 8
  %4 = alloca i32, align 4
  %5 = alloca i32, align 4
  %6 = alloca ptr, align 8
  call void @_ZN22ChooseRandomTypeFilterC1Ebb(ptr noundef nonnull align 8 dereferenceable(32) %2, i1 noundef zeroext false, i1 noundef zeroext false)
  %7 = call noundef i64 @_ZNKSt6vectorIP4TypeSaIS1_EE4sizeEv(ptr noundef nonnull align 8 dereferenceable(24) @_ZL8AllTypes) #3
  %8 = trunc i64 %7 to i32
  %9 = invoke noundef i32 @_Z8rnd_uptojPK6FilterPKNSt7__cxx1112basic_stringIcSt11char_traitsIcESaIcEEE(i32 noundef %8, ptr noundef %2, ptr noundef null)
          to label %10 unwind label %15

10:                                               ; preds = %0
  %11 = invoke noundef i32 @_ZN5Error9get_errorEv()
          to label %12 unwind label %15

12:                                               ; preds = %10
  %13 = icmp ne i32 %11, 0
  br i1 %13, label %14, label %19

14:                                               ; preds = %12
  store ptr null, ptr %1, align 8
  store i32 1, ptr %5, align 4
  br label %32

15:                                               ; preds = %25, %10, %0
  %16 = landingpad { ptr, i32 }
          cleanup
  %17 = extractvalue { ptr, i32 } %16, 0
  store ptr %17, ptr %3, align 8
  %18 = extractvalue { ptr, i32 } %16, 1
  store i32 %18, ptr %4, align 4
  call void @_ZN22ChooseRandomTypeFilterD1Ev(ptr noundef nonnull align 8 dereferenceable(32) %2) #3
  br label %34

19:                                               ; preds = %12
  %20 = call noundef ptr @_ZN22ChooseRandomTypeFilter8get_typeEv(ptr noundef nonnull align 8 dereferenceable(32) %2)
  store ptr %20, ptr %6, align 8
  %21 = load ptr, ptr %6, align 8
  %22 = getelementptr inbounds %class.Type, ptr %21, i32 0, i32 6
  %23 = load i8, ptr %22, align 4
  %24 = trunc i8 %23 to i1
  br i1 %24, label %30, label %25

25:                                               ; preds = %19
  %26 = load ptr, ptr %6, align 8
  invoke void @_ZN10Bookkeeper26record_type_with_bitfieldsEPK4Type(ptr noundef %26)
          to label %27 unwind label %15

27:                                               ; preds = %25
  %28 = load ptr, ptr %6, align 8
  %29 = getelementptr inbounds %class.Type, ptr %28, i32 0, i32 6
  store i8 1, ptr %29, align 4
  br label %30

30:                                               ; preds = %27, %19
  %31 = load ptr, ptr %6, align 8
  store ptr %31, ptr %1, align 8
  store i32 1, ptr %5, align 4
  br label %32

32:                                               ; preds = %30, %14
  call void @_ZN22ChooseRandomTypeFilterD1Ev(ptr noundef nonnull align 8 dereferenceable(32) %2) #3
  %33 = load ptr, ptr %1, align 8
  ret ptr %33

34:                                               ; preds = %15
  %35 = load ptr, ptr %3, align 8
  %36 = load i32, ptr %4, align 4
  %37 = insertvalue { ptr, i32 } poison, ptr %35, 0
  %38 = insertvalue { ptr, i32 } %37, i32 %36, 1
  resume { ptr, i32 } %38
}