; Function Attrs: mustprogress uwtable
define dso_local noundef ptr @_ZN4Type13choose_randomEv() local_unnamed_addr #4 align 2 personality ptr @__gxx_personality_v0 {
  %1 = alloca %class.ChooseRandomTypeFilter, align 8
  call void @_ZN6FilterC2Ev(ptr noundef nonnull align 8 dereferenceable(16) %1)
  store ptr getelementptr inbounds ({ [5 x ptr] }, ptr @_ZTV22ChooseRandomTypeFilter, i64 0, i32 0, i64 2), ptr %1, align 8
  %2 = getelementptr inbounds i8, ptr %1, i64 16
  store i8 0, ptr %2, align 8
  %3 = getelementptr inbounds i8, ptr %1, i64 17
  store i8 0, ptr %3, align 1
  %4 = getelementptr inbounds i8, ptr %1, i64 24
  store ptr null, ptr %4, align 8
  %5 = load ptr, ptr getelementptr inbounds (%"class.std::vector", ptr @_ZL8AllTypes, i64 0, i32 0, i32 0, i32 0, i32 1), align 8
  %6 = load ptr, ptr @_ZL8AllTypes, align 8
  %7 = ptrtoint ptr %5 to i64
  %8 = ptrtoint ptr %6 to i64
  %9 = sub i64 %7, %8
  %10 = lshr exact i64 %9, 3
  %11 = trunc i64 %10 to i32
  %12 = invoke noundef i32 @_Z8rnd_uptojPK6FilterPKNSt7__cxx1112basic_stringIcSt11char_traitsIcESaIcEEE(i32 noundef %11, ptr noundef nonnull %1, ptr noundef null)
          to label %13 unwind label %15

13:                                               ; preds = %0
  %14 = load i32, ptr @_ZN5Error8r_error_E, align 4
  %.not = icmp eq i32 %14, 0
  br i1 %.not, label %17, label %24

15:                                               ; preds = %22, %0
  %16 = landingpad { ptr, i32 }
          cleanup
  call void @_ZN6FilterD2Ev(ptr noundef nonnull align 8 dereferenceable(16) %1) #23
  resume { ptr, i32 } %16

17:                                               ; preds = %13
  %18 = load ptr, ptr %4, align 8
  %19 = getelementptr inbounds i8, ptr %18, i64 76
  %20 = load i8, ptr %19, align 4
  %21 = and i8 %20, 1
  %.not6 = icmp eq i8 %21, 0
  br i1 %.not6, label %22, label %24

22:                                               ; preds = %17
  invoke void @_ZN10Bookkeeper26record_type_with_bitfieldsEPK4Type(ptr noundef nonnull %18)
          to label %23 unwind label %15

23:                                               ; preds = %22
  store i8 1, ptr %19, align 4
  br label %24

24:                                               ; preds = %17, %23, %13
  %.0 = phi ptr [ null, %13 ], [ %18, %23 ], [ %18, %17 ]
  call void @_ZN6FilterD2Ev(ptr noundef nonnull align 8 dereferenceable(16) %1) #23
  ret ptr %.0
}